target datalayout = "e-m:e-p270:32:32-p271:32:32-p272:64:64-i64:64-i128:128-f80:128-n8:16:32:64-S128"
target triple = "x86_64-pc-linux-gnu"

%struct._zend_alloc_globals = type { ptr }
%struct._zend_mm_heap = type { i32, ptr, i64, i64, [30 x ptr], i64, i64, i64, i32, ptr, ptr, ptr, i32, i32, i32, double, i32, i32, %struct.anon, ptr }
%struct.anon = type { ptr, ptr, ptr }

@alloc_globals = internal global %struct._zend_alloc_globals zeroinitializer, align 8

; Function Attrs: nounwind allocsize(0) uwtable
define noalias ptr @_emalloc_large(i64 noundef %0) #7 {
  %2 = alloca ptr, align 8
  %3 = alloca i64, align 8
  %4 = alloca i32, align 4
  %5 = alloca ptr, align 8
  %6 = alloca i64, align 8
  %7 = alloca i64, align 8
  %8 = alloca ptr, align 8
  %9 = alloca i64, align 8
  store i64 %0, ptr %9, align 8
  br label %10

10:                                               ; preds = %1
  %11 = load ptr, ptr @alloc_globals, align 8
  %12 = getelementptr inbounds %struct._zend_mm_heap, ptr %11, i32 0, i32 0
  %13 = load i32, ptr %12, align 8
  %14 = icmp ne i32 %13, 0
  %15 = xor i1 %14, true
  %16 = xor i1 %15, true
  %17 = zext i1 %16 to i32
  %18 = sext i32 %17 to i64
  %19 = icmp ne i64 %18, 0
  br i1 %19, label %20, label %27

20:                                               ; preds = %10
  %21 = load ptr, ptr @alloc_globals, align 8
  %22 = getelementptr inbounds %struct._zend_mm_heap, ptr %21, i32 0, i32 18
  %23 = getelementptr inbounds %struct.anon, ptr %22, i32 0, i32 0
  %24 = load ptr, ptr %23, align 8
  %25 = load i64, ptr %9, align 8
  %26 = call ptr %24(i64 noundef %25)
  store ptr %26, ptr %8, align 8
  br label %65

27:                                               ; preds = %10
  br label %28

28:                                               ; preds = %27
  %29 = load ptr, ptr @alloc_globals, align 8
  %30 = load i64, ptr %9, align 8
  store ptr %29, ptr %2, align 8
  store i64 %30, ptr %3, align 8
  %31 = load i64, ptr %3, align 8
  %32 = add i64 %31, 4095
  %33 = udiv i64 %32, 4096
  %34 = trunc i64 %33 to i32
  store i32 %34, ptr %4, align 4
  %35 = load ptr, ptr %2, align 8
  %36 = load i32, ptr %4, align 4
  %37 = call ptr @zend_mm_alloc_pages(ptr noundef %35, i32 noundef %36)
  store ptr %37, ptr %5, align 8
  %38 = load ptr, ptr %2, align 8
  %39 = getelementptr inbounds %struct._zend_mm_heap, ptr %38, i32 0, i32 2
  %40 = load i64, ptr %39, align 8
  %41 = load i32, ptr %4, align 4
  %42 = mul nsw i32 %41, 4096
  %43 = sext i32 %42 to i64
  %44 = add i64 %40, %43
  store i64 %44, ptr %6, align 8
  %45 = load ptr, ptr %2, align 8
  %46 = getelementptr inbounds %struct._zend_mm_heap, ptr %45, i32 0, i32 3
  %47 = load i64, ptr %46, align 8
  %48 = load i64, ptr %6, align 8
  %49 = icmp ugt i64 %47, %48
  br i1 %49, label %50, label %54

50:                                               ; preds = %28
  %51 = load ptr, ptr %2, align 8
  %52 = getelementptr inbounds %struct._zend_mm_heap, ptr %51, i32 0, i32 3
  %53 = load i64, ptr %52, align 8
  br label %56

54:                                               ; preds = %28
  %55 = load i64, ptr %6, align 8
  br label %56

56:                                               ; preds = %54, %50
  %57 = phi i64 [ %53, %50 ], [ %55, %54 ]
  store i64 %57, ptr %7, align 8
  %58 = load i64, ptr %6, align 8
  %59 = load ptr, ptr %2, align 8
  %60 = getelementptr inbounds %struct._zend_mm_heap, ptr %59, i32 0, i32 2
  store i64 %58, ptr %60, align 8
  %61 = load i64, ptr %7, align 8
  %62 = load ptr, ptr %2, align 8
  %63 = getelementptr inbounds %struct._zend_mm_heap, ptr %62, i32 0, i32 3
  store i64 %61, ptr %63, align 8
  %64 = load ptr, ptr %5, align 8
  store ptr %64, ptr %8, align 8
  br label %65

65:                                               ; preds = %56, %20
  %66 = load ptr, ptr %8, align 8
  ret ptr %66
}