; Function Attrs: nounwind allocsize(0) uwtable
define noalias ptr @_emalloc_large(i64 noundef %0) local_unnamed_addr #9 {
  %2 = load ptr, ptr @alloc_globals.0, align 8
  %3 = load i32, ptr %2, align 8
  %.not = icmp eq i32 %3, 0
  br i1 %.not, label %8, label %4

4:                                                ; preds = %1
  %5 = getelementptr inbounds i8, ptr %2, i64 360
  %6 = load ptr, ptr %5, align 8
  %7 = tail call ptr %6(i64 noundef %0) #35
  br label %20

8:                                                ; preds = %1
  %9 = add i64 %0, 4095
  %10 = lshr i64 %9, 12
  %11 = trunc i64 %10 to i32
  %12 = tail call fastcc ptr @zend_mm_alloc_pages(ptr noundef nonnull %2, i32 noundef %11)
  %13 = getelementptr inbounds i8, ptr %2, i64 16
  %14 = load i64, ptr %13, align 8
  %15 = shl nsw i32 %11, 12
  %16 = sext i32 %15 to i64
  %17 = add i64 %14, %16
  %18 = getelementptr inbounds i8, ptr %2, i64 24
  %19 = load i64, ptr %18, align 8
  %. = tail call i64 @llvm.umax.i64(i64 %19, i64 %17)
  store i64 %17, ptr %13, align 8
  store i64 %., ptr %18, align 8
  br label %20

20:                                               ; preds = %8, %4
  %.0 = phi ptr [ %7, %4 ], [ %12, %8 ]
  ret ptr %.0
}